target datalayout = "e-m:e-p270:32:32-p271:32:32-p272:64:64-i64:64-i128:128-f80:128-n8:16:32:64-S128"
target triple = "x86_64-pc-linux-gnu"

%struct.GCRef = type { i64 }
%struct.IRType1 = type { i8 }
%union.IRIns = type { %struct.GCRef }
%struct.ASMState = type { [32 x i32], ptr, ptr, ptr, ptr, %struct.x86ModRM, i32, i32, i32, i32, i32, i32, i32, i32, i32, i32, i32, i32, i32, i32, i32, i32, i64, i64, i32, i32, i32, i32, i32, ptr, ptr, ptr, ptr, ptr, ptr, ptr, ptr, ptr, [32 x i16], [250 x i16] }
%struct.x86ModRM = type { i32, i8, i8, i8 }
%struct.anon.0 = type { i32, %struct.IRType1, i8, i8, i8 }

; Function Attrs: nounwind uwtable
define internal i32 @asm_isk32(ptr noundef %0, i32 noundef %1, ptr noundef %2) #0 {
  %4 = alloca i32, align 4
  %5 = alloca ptr, align 8
  %6 = alloca i32, align 4
  %7 = alloca ptr, align 8
  %8 = alloca ptr, align 8
  %9 = alloca i32, align 4
  store ptr %0, ptr %5, align 8, !tbaa !33
  store i32 %1, ptr %6, align 4, !tbaa !11
  store ptr %2, ptr %7, align 8, !tbaa !116
  %10 = load i32, ptr %6, align 4, !tbaa !11
  %11 = icmp ult i32 %10, 32768
  br i1 %11, label %12, label %59

12:                                               ; preds = %3
  call void @llvm.lifetime.start.p0(i64 8, ptr %8) #11
  %13 = load ptr, ptr %5, align 8, !tbaa !33
  %14 = getelementptr inbounds nuw %struct.ASMState, ptr %13, i32 0, i32 3
  %15 = load ptr, ptr %14, align 8, !tbaa !70
  %16 = load i32, ptr %6, align 4, !tbaa !11
  %17 = zext i32 %16 to i64
  %18 = getelementptr inbounds nuw %union.IRIns, ptr %15, i64 %17
  store ptr %18, ptr %8, align 8, !tbaa !37
  %19 = load ptr, ptr %8, align 8, !tbaa !37
  %20 = getelementptr inbounds nuw %struct.anon.0, ptr %19, i32 0, i32 2
  %21 = load i8, ptr %20, align 1, !tbaa !25
  %22 = zext i8 %21 to i32
  %23 = icmp eq i32 %22, 27
  br i1 %23, label %34, label %24

24:                                               ; preds = %12
  %25 = load ptr, ptr %8, align 8, !tbaa !37
  %26 = getelementptr inbounds nuw %struct.anon.0, ptr %25, i32 0, i32 1
  %27 = getelementptr inbounds nuw %struct.IRType1, ptr %26, i32 0, i32 0
  %28 = load i8, ptr %27, align 4, !tbaa !25
  %29 = zext i8 %28 to i32
  %30 = and i32 %29, 31
  %31 = lshr i32 6315993, %30
  %32 = and i32 %31, 1
  %33 = icmp ne i32 %32, 0
  br i1 %33, label %38, label %34

34:                                               ; preds = %24, %12
  %35 = load ptr, ptr %8, align 8, !tbaa !37
  %36 = load i32, ptr %35, align 8, !tbaa !25
  %37 = load ptr, ptr %7, align 8, !tbaa !116
  store i32 %36, ptr %37, align 4, !tbaa !11
  store i32 1, ptr %4, align 4
  store i32 1, ptr %9, align 4
  br label %56

38:                                               ; preds = %24
  %39 = load ptr, ptr %8, align 8, !tbaa !37
  %40 = getelementptr inbounds %union.IRIns, ptr %39, i64 1
  %41 = load i64, ptr %40, align 8, !tbaa !25
  %42 = load ptr, ptr %8, align 8, !tbaa !37
  %43 = getelementptr inbounds %union.IRIns, ptr %42, i64 1
  %44 = load i64, ptr %43, align 8, !tbaa !25
  %45 = trunc i64 %44 to i32
  %46 = sext i32 %45 to i64
  %47 = icmp eq i64 %41, %46
  br i1 %47, label %48, label %54

48:                                               ; preds = %38
  %49 = load ptr, ptr %8, align 8, !tbaa !37
  %50 = getelementptr inbounds %union.IRIns, ptr %49, i64 1
  %51 = load i64, ptr %50, align 8, !tbaa !25
  %52 = trunc i64 %51 to i32
  %53 = load ptr, ptr %7, align 8, !tbaa !116
  store i32 %52, ptr %53, align 4, !tbaa !11
  store i32 1, ptr %4, align 4
  store i32 1, ptr %9, align 4
  br label %56

54:                                               ; preds = %38
  br label %55

55:                                               ; preds = %54
  store i32 0, ptr %9, align 4
  br label %56

56:                                               ; preds = %55, %48, %34
  call void @llvm.lifetime.end.p0(i64 8, ptr %8) #11
  %57 = load i32, ptr %9, align 4
  switch i32 %57, label %62 [
    i32 0, label %58
    i32 1, label %60
  ]

58:                                               ; preds = %56
  br label %59

59:                                               ; preds = %58, %3
  store i32 0, ptr %4, align 4
  br label %60

60:                                               ; preds = %59, %56
  %61 = load i32, ptr %4, align 4
  ret i32 %61

62:                                               ; preds = %56
  unreachable
}