; Function Attrs: mustprogress nofree norecurse nosync nounwind willreturn memory(read, argmem: readwrite, inaccessiblemem: none) uwtable
define internal fastcc range(i32 0, 2) i32 @asm_isk32(ptr noundef nonnull readonly captures(none) %0, i32 noundef range(i32 0, 65536) %1, ptr noundef nonnull writeonly captures(none) %2) unnamed_addr #12 {
  %4 = icmp samesign ult i32 %1, 32768
  br i1 %4, label %5, label %.thread

5:                                                ; preds = %3
  %6 = getelementptr inbounds nuw i8, ptr %0, i64 144
  %7 = load ptr, ptr %6, align 8, !tbaa !68
  %8 = zext nneg i32 %1 to i64
  %9 = getelementptr inbounds nuw %union.IRIns, ptr %7, i64 %8
  %10 = getelementptr inbounds nuw i8, ptr %9, i64 5
  %11 = load i8, ptr %10, align 1, !tbaa !20
  %12 = icmp eq i8 %11, 27
  br i1 %12, label %20, label %13

13:                                               ; preds = %5
  %14 = getelementptr inbounds nuw i8, ptr %9, i64 4
  %15 = load i8, ptr %14, align 4, !tbaa !20
  %16 = and i8 %15, 31
  %17 = zext nneg i8 %16 to i32
  %18 = shl nuw i32 1, %17
  %19 = and i32 %18, 6315993
  %.not = icmp eq i32 %19, 0
  br i1 %.not, label %20, label %22

20:                                               ; preds = %13, %5
  %21 = load i32, ptr %9, align 8, !tbaa !20
  br label %.thread.sink.split

22:                                               ; preds = %13
  %23 = getelementptr inbounds nuw i8, ptr %9, i64 8
  %24 = load i64, ptr %23, align 8, !tbaa !20
  %25 = add i64 %24, 2147483648
  %26 = icmp ult i64 %25, 4294967296
  br i1 %26, label %27, label %.thread

27:                                               ; preds = %22
  %28 = trunc i64 %24 to i32
  br label %.thread.sink.split

.thread.sink.split:                               ; preds = %20, %27
  %.sink = phi i32 [ %28, %27 ], [ %21, %20 ]
  store i32 %.sink, ptr %2, align 4, !tbaa !21
  br label %.thread

.thread:                                          ; preds = %.thread.sink.split, %3, %22
  %.1 = phi i32 [ 0, %22 ], [ 0, %3 ], [ 1, %.thread.sink.split ]
  ret i32 %.1
}